; Function Attrs: nounwind sspstrong uwtable
define internal i64 @ossl_ts_req_alloc(i64 noundef %0) #0 {
  %2 = tail call i64 @rb_data_typed_object_wrap(i64 noundef %0, ptr noundef null, ptr noundef nonnull @ossl_ts_req_type) #7
  %3 = tail call ptr @TS_REQ_new() #7
  %.not = icmp eq ptr %3, null
  br i1 %.not, label %4, label %6

4:                                                ; preds = %1
  %5 = load i64, ptr @eTimestampError, align 8, !tbaa !6
  tail call void (i64, ptr, ...) @ossl_raise(i64 noundef %5, ptr noundef null) #8
  unreachable

6:                                                ; preds = %1
  %7 = inttoptr i64 %2 to ptr
  %8 = getelementptr inbounds nuw i8, ptr %7, i64 32
  store ptr %3, ptr %8, align 8, !tbaa !10
  %9 = tail call i32 @TS_REQ_set_version(ptr noundef nonnull %3, i64 noundef 1) #7
  %10 = tail call i32 @TS_REQ_set_cert_req(ptr noundef nonnull %3, i32 noundef 1) #7
  ret i64 %2
}